; Function Attrs: null_pointer_is_valid sspstrong uwtable
define void @tvb_get_letohguid(ptr noundef %0, i32 noundef %1, ptr noundef initializes((0, 8)) %2) local_unnamed_addr #0 {
  %4 = tail call fastcc ptr @ensure_contiguous(ptr noundef %0, i32 noundef %1, i32 noundef 16)
  %5 = load i32, ptr %4, align 1
  store i32 %5, ptr %2, align 4
  %6 = getelementptr i8, ptr %4, i64 4
  %.val10 = load i16, ptr %6, align 1
  %7 = getelementptr inbounds nuw i8, ptr %2, i64 4
  store i16 %.val10, ptr %7, align 4
  %8 = getelementptr i8, ptr %4, i64 6
  %.val = load i16, ptr %8, align 1
  %9 = getelementptr inbounds nuw i8, ptr %2, i64 6
  store i16 %.val, ptr %9, align 2
  %10 = getelementptr inbounds nuw i8, ptr %2, i64 8
  %11 = getelementptr i8, ptr %4, i64 8
  %12 = load i64, ptr %11, align 1
  store i64 %12, ptr %10, align 1
  ret void
}